; Function Attrs: nounwind uwtable
define hidden void @SDL_RedrawCursor() local_unnamed_addr #0 {
  %1 = load ptr, ptr getelementptr inbounds nuw (i8, ptr @SDL_mouse, i64 128), align 8
  %.not = icmp eq ptr %1, null
  %.val = load ptr, ptr getelementptr inbounds nuw (i8, ptr @SDL_mouse, i64 272), align 8
  %.val14 = load ptr, ptr getelementptr inbounds nuw (i8, ptr @SDL_mouse, i64 280), align 8
  br i1 %.not, label %11, label %2

2:                                                ; preds = %0
  %3 = load i8, ptr getelementptr inbounds nuw (i8, ptr @SDL_mouse, i64 288), align 8, !range !3, !noundef !4
  %4 = trunc nuw i8 %3 to i1
  br i1 %4, label %5, label %10

5:                                                ; preds = %2
  %6 = load i8, ptr getelementptr inbounds nuw (i8, ptr @SDL_mouse, i64 185), align 1, !range !3, !noundef !4
  %7 = trunc nuw i8 %6 to i1
  %8 = load i8, ptr getelementptr inbounds nuw (i8, ptr @SDL_mouse, i64 187), align 1, !range !3
  %9 = trunc nuw i8 %8 to i1
  %or.cond = select i1 %7, i1 %9, i1 false
  br i1 %or.cond, label %10, label %11

10:                                               ; preds = %5, %2
  br label %11

11:                                               ; preds = %10, %5, %0
  %.1 = phi ptr [ null, %10 ], [ %.val14, %5 ], [ %.val, %0 ]
  %12 = load ptr, ptr getelementptr inbounds nuw (i8, ptr @SDL_mouse, i64 16), align 8
  %.not12 = icmp eq ptr %12, null
  br i1 %.not12, label %15, label %13

13:                                               ; preds = %11
  %14 = tail call zeroext i1 %12(ptr noundef %.1) #13
  br label %15

15:                                               ; preds = %13, %11
  ret void
}